; Function Attrs: mustprogress nofree nounwind willreturn memory(write, argmem: readwrite) uwtable
define void @_ZNK32pxrInternal_v0_24__pxrReserved__10GfMatrix3f25ExtractRotationQuaternionEv(ptr dead_on_unwind noalias nocapture writable writeonly sret(%"class.pxrInternal_v0_24__pxrReserved__::GfQuaternion") align 8 %0, ptr nocapture noundef nonnull readonly align 4 dereferenceable(36) %1) local_unnamed_addr #9 align 2 {
  %3 = alloca %"class.pxrInternal_v0_24__pxrReserved__::GfVec3d", align 8
  %4 = load float, ptr %1, align 4
  %5 = getelementptr inbounds i8, ptr %1, i64 16
  %6 = load float, ptr %5, align 4
  %7 = fcmp ule float %4, %6
  %8 = getelementptr inbounds i8, ptr %1, i64 32
  %9 = load float, ptr %8, align 4
  %. = select i1 %7, float %6, float %4
  %.36 = zext i1 %7 to i32
  %10 = fcmp ogt float %., %9
  %11 = select i1 %10, i32 %.36, i32 2
  %.0.fr = freeze i32 %11
  %12 = fadd float %4, %6
  %13 = fadd float %12, %9
  %14 = mul nuw nsw i32 %.0.fr, 3
  %15 = sext i32 %14 to i64
  %16 = getelementptr inbounds float, ptr %1, i64 %15
  %17 = zext nneg i32 %.0.fr to i64
  %18 = getelementptr inbounds float, ptr %16, i64 %17
  %19 = load float, ptr %18, align 4
  %20 = fcmp ogt float %13, %19
  br i1 %20, label %21, label %50

21:                                               ; preds = %2
  %22 = getelementptr inbounds i8, ptr %1, i64 12
  %23 = getelementptr inbounds i8, ptr %1, i64 24
  %24 = fadd float %13, 1.000000e+00
  %25 = tail call noundef float @sqrtf(float noundef %24) #18
  %26 = fpext float %25 to double
  %27 = fmul double %26, 5.000000e-01
  %28 = getelementptr inbounds i8, ptr %1, i64 20
  %29 = load float, ptr %28, align 4
  %30 = getelementptr inbounds i8, ptr %1, i64 28
  %31 = load float, ptr %30, align 4
  %32 = fsub float %29, %31
  %33 = fpext float %32 to double
  %34 = fmul double %27, 4.000000e+00
  %35 = fdiv double %33, %34
  %36 = load float, ptr %23, align 4
  %37 = getelementptr inbounds i8, ptr %1, i64 8
  %38 = load float, ptr %37, align 4
  %39 = fsub float %36, %38
  %40 = fpext float %39 to double
  %41 = fdiv double %40, %34
  %42 = getelementptr inbounds i8, ptr %1, i64 4
  %43 = load float, ptr %42, align 4
  %44 = load float, ptr %22, align 4
  %45 = fsub float %43, %44
  %46 = fpext float %45 to double
  %47 = fdiv double %46, %34
  store double %35, ptr %3, align 8
  %48 = getelementptr inbounds i8, ptr %3, i64 8
  store double %41, ptr %48, align 8
  %49 = getelementptr inbounds i8, ptr %3, i64 16
  store double %47, ptr %49, align 8
  br label %99

50:                                               ; preds = %2
  %51 = add nuw nsw i32 %.0.fr, 1
  %52 = icmp eq i32 %51, 3
  %53 = select i1 %52, i32 0, i32 %51
  %54 = add nuw nsw i32 %.0.fr, 2
  %55 = urem i32 %54, 3
  %56 = mul nsw i32 %53, 3
  %57 = sext i32 %56 to i64
  %58 = getelementptr inbounds float, ptr %1, i64 %57
  %59 = sext i32 %53 to i64
  %60 = getelementptr inbounds float, ptr %58, i64 %59
  %61 = load float, ptr %60, align 4
  %62 = fsub float %19, %61
  %63 = mul nuw nsw i32 %55, 3
  %64 = zext nneg i32 %63 to i64
  %65 = getelementptr inbounds float, ptr %1, i64 %64
  %66 = zext nneg i32 %55 to i64
  %67 = getelementptr inbounds float, ptr %65, i64 %66
  %68 = load float, ptr %67, align 4
  %69 = fsub float %62, %68
  %70 = fadd float %69, 1.000000e+00
  %71 = tail call noundef float @sqrtf(float noundef %70) #18
  %72 = fpext float %71 to double
  %73 = fmul double %72, 5.000000e-01
  %74 = getelementptr inbounds [3 x double], ptr %3, i64 0, i64 %17
  store double %73, ptr %74, align 8
  %75 = getelementptr inbounds float, ptr %16, i64 %59
  %76 = load float, ptr %75, align 4
  %77 = getelementptr inbounds float, ptr %58, i64 %17
  %78 = load float, ptr %77, align 4
  %79 = fadd float %76, %78
  %80 = fpext float %79 to double
  %81 = fmul double %73, 4.000000e+00
  %82 = fdiv double %80, %81
  %83 = getelementptr inbounds [3 x double], ptr %3, i64 0, i64 %59
  store double %82, ptr %83, align 8
  %84 = getelementptr inbounds float, ptr %65, i64 %17
  %85 = load float, ptr %84, align 4
  %86 = getelementptr inbounds float, ptr %16, i64 %66
  %87 = load float, ptr %86, align 4
  %88 = fadd float %85, %87
  %89 = fpext float %88 to double
  %90 = fdiv double %89, %81
  %91 = getelementptr inbounds [3 x double], ptr %3, i64 0, i64 %66
  store double %90, ptr %91, align 8
  %92 = getelementptr inbounds float, ptr %58, i64 %66
  %93 = load float, ptr %92, align 4
  %94 = getelementptr inbounds float, ptr %65, i64 %59
  %95 = load float, ptr %94, align 4
  %96 = fsub float %93, %95
  %97 = fpext float %96 to double
  %98 = fdiv double %97, %81
  br label %99

99:                                               ; preds = %50, %21
  %.033 = phi double [ %27, %21 ], [ %98, %50 ]
  %100 = fcmp olt double %.033, -1.000000e+00
  %101 = fcmp ogt double %.033, 1.000000e+00
  %..i = select i1 %101, double 1.000000e+00, double %.033
  %.0.i = select i1 %100, double -1.000000e+00, double %..i
  store double %.0.i, ptr %0, align 8
  %102 = getelementptr inbounds nuw i8, ptr %0, i64 8
  call void @llvm.memcpy.p0.p0.i64(ptr noundef nonnull align 8 dereferenceable(24) %102, ptr noundef nonnull align 8 dereferenceable(24) %3, i64 24, i1 false)
  ret void
}